(dp1
S'failed'
p2
(lp3
S'16'
p4
aS'32'
p5
asS'source_names'
p6
(lp7
S'.'
asS'ids'
p8
(dp9
I1
(S'/home/james/Dropbox/pgtest/test/test.py'
S'test.test'
p10
S'TestPGTestNoParameters.test_cant_set_cluster'
tp11
sI2
(S'/home/james/Dropbox/pgtest/test/test.py'
g10
S'TestPGTestNoParameters.test_cant_set_log_file'
tp12
sI3
(S'/home/james/Dropbox/pgtest/test/test.py'
g10
S'TestPGTestNoParameters.test_cant_set_pg_ctl'
tp13
sI4
(S'/home/james/Dropbox/pgtest/test/test.py'
g10
S'TestPGTestNoParameters.test_cant_set_port'
tp14
sI5
(S'/home/james/Dropbox/pgtest/test/test.py'
g10
S'TestPGTestNoParameters.test_cant_set_url'
tp15
sI6
(S'/home/james/Dropbox/pgtest/test/test.py'
g10
S'TestPGTestNoParameters.test_cant_set_username'
tp16
sI7
(S'/home/james/Dropbox/pgtest/test/test.py'
g10
S'TestPGTestNoParameters.test_cluster_running'
tp17
sI8
(S'/home/james/Dropbox/pgtest/test/test.py'
g10
S'TestPGTestNoParameters.test_cluster_valid'
tp18
sI9
(S'/home/james/Dropbox/pgtest/test/test.py'
g10
S'TestPGTestNoParameters.test_log_file_exists'
tp19
sI10
(S'/home/james/Dropbox/pgtest/test/test.py'
g10
S'TestPGTestNoParameters.test_pg_ctl_valid'
tp20
sI11
(S'/home/james/Dropbox/pgtest/test/test.py'
g10
S'TestPGTestNoParameters.test_port_valid'
tp21
sI12
(S'/home/james/Dropbox/pgtest/test/test.py'
g10
S'TestPGTestNoParameters.test_unix_listen_socket_dir_exists'
tp22
sI13
(S'/home/james/Dropbox/pgtest/test/test.py'
g10
S'TestPGTestNoParameters.test_url_valid'
tp23
sI14
(S'/home/james/Dropbox/pgtest/test/test.py'
g10
S'TestPGTestWithParameters.test_base_dir_valid'
tp24
sI15
(S'/home/james/Dropbox/pgtest/test/test.py'
g10
S'TestPGTestWithParameters.test_cleanup'
tp25
sI16
(S'/home/james/Dropbox/pgtest/test/test.py'
g10
S'TestPGTestWithParameters.test_invalid_copy_cluster_exit'
tp26
sI17
(S'/home/james/Dropbox/pgtest/test/test.py'
g10
S'TestPGTestWithParameters.test_invalid_pg_ctl_exe_exit'
tp27
sI18
(S'/home/james/Dropbox/pgtest/test/test.py'
g10
S'TestPGTestWithParameters.test_invalid_port_exit'
tp28
sI19
(S'/home/james/Dropbox/pgtest/test/test.py'
g10
S'TestPGTestWithParameters.test_invalid_port_type_exit'
tp29
sI20
(S'/home/james/Dropbox/pgtest/test/test.py'
g10
S'TestPGTestWithParameters.test_invalid_username_exit'
tp30
sI21
(S'/home/james/Dropbox/pgtest/test/test.py'
g10
S'TestPGTestWithParameters.test_no_cleanup'
tp31
sI22
(S'/home/james/Dropbox/pgtest/test/test.py'
g10
S'TestPGTestWithParameters.test_no_exist_copy_cluster_exit'
tp32
sI23
(S'/home/james/Dropbox/pgtest/test/test.py'
g10
S'TestPGTestWithParameters.test_pg_ctl_exe_valid'
tp33
sI24
(S'/home/james/Dropbox/pgtest/test/test.py'
g10
S'TestPGTestWithParameters.test_unix_copy_data'
tp34
sI25
(S'/home/james/Dropbox/pgtest/test/test.py'
g10
S'TestPGTestWithParameters.test_username_valid'
tp35
sI26
(S'/home/james/Dropbox/pgtest/test/test.py'
g10
S'TestPGTestWithParameters.test_windows_copy_data'
tp36
sI27
(S'/home/james/Dropbox/pgtest/test/test.py'
g10
S'TestThirdPartyDrivers.test_pg8000'
tp37
sI28
(S'/home/james/Dropbox/pgtest/test/test.py'
g10
S'TestThirdPartyDrivers.test_psycopg2'
tp38
sI29
(S'/home/james/Dropbox/pgtest/test/test.py'
g10
S'TestThirdPartyDrivers.test_sqlalchemy'
tp39
sI30
(S'/home/james/Dropbox/pgtest/test/test.py'
g10
S'Test_is_server_running.test_unix_is_not_server_running'
tp40
sI31
(S'/home/james/Dropbox/pgtest/test/test.py'
g10
S'Test_is_server_running.test_windows_is_not_server_running'
tp41
sI32
(S'/home/james/Dropbox/pgtest/test/test.py'
g10
S'Test_is_valid_cluster_dir.test_is_not_valid_cluster_dir'
tp42
sI33
(S'/home/james/Dropbox/pgtest/test/test.py'
g10
S'Test_is_valid_cluster_dir.test_unix_is_valid_cluster_dir'
tp43
sI34
(S'/home/james/Dropbox/pgtest/test/test.py'
g10
S'Test_is_valid_cluster_dir.test_windows_is_valid_cluster_dir'
tp44
sI35
(S'/home/james/Dropbox/pgtest/test/test.py'
g10
S'Test_is_valid_db_object_name.test_is_valid_db_object_name_blank_is_not_valid'
tp45
sI36
(S'/home/james/Dropbox/pgtest/test/test.py'
g10
S'Test_is_valid_db_object_name.test_is_valid_db_object_name_is_not_valid'
tp46
sI37
(S'/home/james/Dropbox/pgtest/test/test.py'
g10
S'Test_is_valid_db_object_name.test_is_valid_db_object_name_is_valid'
tp47
sI38
(S'/home/james/Dropbox/pgtest/test/test.py'
g10
S'Test_is_valid_db_object_name.test_is_valid_db_object_name_non_string_is_not_valid'
tp48
sI39
(S'/home/james/Dropbox/pgtest/test/test.py'
g10
S'Test_is_valid_db_object_name.test_is_valid_db_object_name_pg__is_not_valid'
tp49
sI40
(S'/home/james/Dropbox/pgtest/test/test.py'
g10
S'Test_is_valid_port.test_is_not_valid_port_neg'
tp50
sI41
(S'/home/james/Dropbox/pgtest/test/test.py'
g10
S'Test_is_valid_port.test_is_not_valid_port_str'
tp51
sI42
(S'/home/james/Dropbox/pgtest/test/test.py'
g10
S'Test_is_valid_port.test_is_not_valid_port_too_high'
tp52
sI43
(S'/home/james/Dropbox/pgtest/test/test.py'
g10
S'Test_is_valid_port.test_is_not_valid_port_too_low'
tp53
sI44
(S'/home/james/Dropbox/pgtest/test/test.py'
g10
S'Test_is_valid_port.test_is_valid_port'
tp54
sI45
(S'/home/james/Dropbox/pgtest/test/test.py'
g10
S'Test_which.test_unix_which_is_executable'
tp55
sI46
(S'/home/james/Dropbox/pgtest/test/test.py'
g10
S'Test_which.test_unix_which_is_not_executable'
tp56
sI47
(S'/home/james/Dropbox/pgtest/test/test.py'
g10
S'Test_which.test_unix_which_unicode'
tp57
sI48
(S'/home/james/Dropbox/pgtest/test/test.py'
g10
S'Test_which.test_which_non_string'
tp58
sI49
(S'/home/james/Dropbox/pgtest/test/test.py'
g10
S'Test_which.test_windows_which_is_executable'
tp59
sI50
(S'/home/james/Dropbox/pgtest/test/test.py'
g10
S'Test_which.test_windows_which_is_not_executable'
tp60
sI51
(S'/home/james/Dropbox/pgtest/test/test.py'
g10
S'Test_which.test_windows_which_path_is_executable'
tp61
sI52
(S'/home/james/Dropbox/pgtest/test/test.py'
g10
S'Test_which.test_windows_which_path_with_extension_is_executable'
tp62
sI53
(S'/home/james/Dropbox/pgtest/test/test.py'
g10
S'Test_which.test_windows_which_unicode'
tp63
sI54
(S'/home/james/Dropbox/pgtest/test/test.py'
g10
S'Test_which.test_windows_which_with_extension_is_executable'
tp64
sI55
(S'/home/james/Dropbox/pgtest/test/test.py'
g10
S'Test_which.testunix__which_path_is_executable'
tp65
ss.